target datalayout = "e-m:e-p270:32:32-p271:32:32-p272:64:64-i64:64-i128:128-f80:128-n8:16:32:64-S128"
target triple = "x86_64-pc-linux-gnu"

%struct.Vec_Int_t_ = type { i32, i32, ptr }
%struct.Vec_Bit_t_ = type { i32, i32, ptr }
%struct.Wla_Man_t_ = type { ptr, ptr, ptr, ptr, ptr, ptr, ptr, ptr, ptr, ptr, i32, i32, i32, i32, i32, i32, i64, i64, i64 }

; Function Attrs: inlinehint nounwind uwtable
define internal void @Vec_BitFree(ptr noundef %0) #2 {
  %2 = alloca ptr, align 8
  store ptr %0, ptr %2, align 8, !tbaa !37
  %3 = load ptr, ptr %2, align 8, !tbaa !37
  %4 = getelementptr inbounds nuw %struct.Vec_Bit_t_, ptr %3, i32 0, i32 2
  %5 = load ptr, ptr %4, align 8, !tbaa !41
  %6 = icmp ne ptr %5, null
  br i1 %6, label %7, label %13

7:                                                ; preds = %1
  %8 = load ptr, ptr %2, align 8, !tbaa !37
  %9 = getelementptr inbounds nuw %struct.Vec_Bit_t_, ptr %8, i32 0, i32 2
  %10 = load ptr, ptr %9, align 8, !tbaa !41
  call void @free(ptr noundef %10) #13
  %11 = load ptr, ptr %2, align 8, !tbaa !37
  %12 = getelementptr inbounds nuw %struct.Vec_Bit_t_, ptr %11, i32 0, i32 2
  store ptr null, ptr %12, align 8, !tbaa !41
  br label %14

13:                                               ; preds = %1
  br label %14

14:                                               ; preds = %13, %7
  %15 = load ptr, ptr %2, align 8, !tbaa !37
  %16 = icmp ne ptr %15, null
  br i1 %16, label %17, label %19

17:                                               ; preds = %14
  %18 = load ptr, ptr %2, align 8, !tbaa !37
  call void @free(ptr noundef %18) #13
  store ptr null, ptr %2, align 8, !tbaa !37
  br label %20

19:                                               ; preds = %14
  br label %20

20:                                               ; preds = %19, %17
  ret void
}

; Function Attrs: inlinehint nounwind uwtable
define internal void @Vec_IntFree(ptr noundef %0) #2 {
  %2 = alloca ptr, align 8
  store ptr %0, ptr %2, align 8, !tbaa !39
  %3 = load ptr, ptr %2, align 8, !tbaa !39
  %4 = getelementptr inbounds nuw %struct.Vec_Int_t_, ptr %3, i32 0, i32 2
  %5 = load ptr, ptr %4, align 8, !tbaa !43
  %6 = icmp ne ptr %5, null
  br i1 %6, label %7, label %13

7:                                                ; preds = %1
  %8 = load ptr, ptr %2, align 8, !tbaa !39
  %9 = getelementptr inbounds nuw %struct.Vec_Int_t_, ptr %8, i32 0, i32 2
  %10 = load ptr, ptr %9, align 8, !tbaa !43
  call void @free(ptr noundef %10) #13
  %11 = load ptr, ptr %2, align 8, !tbaa !39
  %12 = getelementptr inbounds nuw %struct.Vec_Int_t_, ptr %11, i32 0, i32 2
  store ptr null, ptr %12, align 8, !tbaa !43
  br label %14

13:                                               ; preds = %1
  br label %14

14:                                               ; preds = %13, %7
  %15 = load ptr, ptr %2, align 8, !tbaa !39
  %16 = icmp ne ptr %15, null
  br i1 %16, label %17, label %19

17:                                               ; preds = %14
  %18 = load ptr, ptr %2, align 8, !tbaa !39
  call void @free(ptr noundef %18) #13
  store ptr null, ptr %2, align 8, !tbaa !39
  br label %20

19:                                               ; preds = %14
  br label %20

20:                                               ; preds = %19, %17
  ret void
}

; Function Attrs: nounwind uwtable
define void @Wla_ManStop(ptr noundef %0) #0 {
  %2 = alloca ptr, align 8
  store ptr %0, ptr %2, align 8, !tbaa !74
  %3 = load ptr, ptr %2, align 8, !tbaa !74
  %4 = getelementptr inbounds nuw %struct.Wla_Man_t_, ptr %3, i32 0, i32 3
  %5 = load ptr, ptr %4, align 8, !tbaa !94
  %6 = icmp ne ptr %5, null
  br i1 %6, label %7, label %11

7:                                                ; preds = %1
  %8 = load ptr, ptr %2, align 8, !tbaa !74
  %9 = getelementptr inbounds nuw %struct.Wla_Man_t_, ptr %8, i32 0, i32 3
  %10 = load ptr, ptr %9, align 8, !tbaa !94
  call void @Vec_IntFree(ptr noundef %10)
  br label %11

11:                                               ; preds = %7, %1
  %12 = load ptr, ptr %2, align 8, !tbaa !74
  %13 = getelementptr inbounds nuw %struct.Wla_Man_t_, ptr %12, i32 0, i32 4
  %14 = load ptr, ptr %13, align 8, !tbaa !76
  %15 = icmp ne ptr %14, null
  br i1 %15, label %16, label %20

16:                                               ; preds = %11
  %17 = load ptr, ptr %2, align 8, !tbaa !74
  %18 = getelementptr inbounds nuw %struct.Wla_Man_t_, ptr %17, i32 0, i32 4
  %19 = load ptr, ptr %18, align 8, !tbaa !76
  call void @Vec_IntFree(ptr noundef %19)
  br label %20

20:                                               ; preds = %16, %11
  %21 = load ptr, ptr %2, align 8, !tbaa !74
  %22 = getelementptr inbounds nuw %struct.Wla_Man_t_, ptr %21, i32 0, i32 6
  %23 = load ptr, ptr %22, align 8, !tbaa !111
  %24 = icmp ne ptr %23, null
  br i1 %24, label %25, label %29

25:                                               ; preds = %20
  %26 = load ptr, ptr %2, align 8, !tbaa !74
  %27 = getelementptr inbounds nuw %struct.Wla_Man_t_, ptr %26, i32 0, i32 6
  %28 = load ptr, ptr %27, align 8, !tbaa !111
  call void @Gia_ManStop(ptr noundef %28)
  br label %29

29:                                               ; preds = %25, %20
  %30 = load ptr, ptr %2, align 8, !tbaa !74
  %31 = getelementptr inbounds nuw %struct.Wla_Man_t_, ptr %30, i32 0, i32 5
  %32 = load ptr, ptr %31, align 8, !tbaa !149
  %33 = icmp ne ptr %32, null
  br i1 %33, label %34, label %38

34:                                               ; preds = %29
  %35 = load ptr, ptr %2, align 8, !tbaa !74
  %36 = getelementptr inbounds nuw %struct.Wla_Man_t_, ptr %35, i32 0, i32 5
  %37 = load ptr, ptr %36, align 8, !tbaa !149
  call void @Abc_CexFree(ptr noundef %37)
  br label %38

38:                                               ; preds = %34, %29
  %39 = load ptr, ptr %2, align 8, !tbaa !74
  %40 = getelementptr inbounds nuw %struct.Wla_Man_t_, ptr %39, i32 0, i32 7
  %41 = load ptr, ptr %40, align 8, !tbaa !83
  call void @Vec_BitFree(ptr noundef %41)
  %42 = load ptr, ptr %2, align 8, !tbaa !74
  %43 = getelementptr inbounds nuw %struct.Wla_Man_t_, ptr %42, i32 0, i32 8
  %44 = load ptr, ptr %43, align 8, !tbaa !115
  %45 = icmp ne ptr %44, null
  br i1 %45, label %46, label %52

46:                                               ; preds = %38
  %47 = load ptr, ptr %2, align 8, !tbaa !74
  %48 = getelementptr inbounds nuw %struct.Wla_Man_t_, ptr %47, i32 0, i32 8
  %49 = load ptr, ptr %48, align 8, !tbaa !115
  call void @free(ptr noundef %49) #13
  %50 = load ptr, ptr %2, align 8, !tbaa !74
  %51 = getelementptr inbounds nuw %struct.Wla_Man_t_, ptr %50, i32 0, i32 8
  store ptr null, ptr %51, align 8, !tbaa !115
  br label %53

52:                                               ; preds = %38
  br label %53

53:                                               ; preds = %52, %46
  %54 = load ptr, ptr %2, align 8, !tbaa !74
  %55 = icmp ne ptr %54, null
  br i1 %55, label %56, label %58

56:                                               ; preds = %53
  %57 = load ptr, ptr %2, align 8, !tbaa !74
  call void @free(ptr noundef %57) #13
  store ptr null, ptr %2, align 8, !tbaa !74
  br label %59

58:                                               ; preds = %53
  br label %59

59:                                               ; preds = %58, %56
  ret void
}