; Function Attrs: nounwind uwtable
define void @Wla_ManStop(ptr noundef captures(none) %0) local_unnamed_addr #1 {
  %2 = getelementptr inbounds nuw i8, ptr %0, i64 24
  %3 = load ptr, ptr %2, align 8, !tbaa !111
  %.not = icmp eq ptr %3, null
  br i1 %.not, label %8, label %4

4:                                                ; preds = %1
  %5 = getelementptr inbounds nuw i8, ptr %3, i64 8
  %6 = load ptr, ptr %5, align 8, !tbaa !14
  %.not.i = icmp eq ptr %6, null
  br i1 %.not.i, label %Vec_IntFree.exit, label %7

7:                                                ; preds = %4
  tail call void @free(ptr noundef nonnull %6) #24
  br label %Vec_IntFree.exit

Vec_IntFree.exit:                                 ; preds = %4, %7
  tail call void @free(ptr noundef nonnull %3) #24
  br label %8

8:                                                ; preds = %Vec_IntFree.exit, %1
  %9 = getelementptr inbounds nuw i8, ptr %0, i64 32
  %10 = load ptr, ptr %9, align 8, !tbaa !67
  %.not19 = icmp eq ptr %10, null
  br i1 %.not19, label %15, label %11

11:                                               ; preds = %8
  %12 = getelementptr inbounds nuw i8, ptr %10, i64 8
  %13 = load ptr, ptr %12, align 8, !tbaa !14
  %.not.i24 = icmp eq ptr %13, null
  br i1 %.not.i24, label %Vec_IntFree.exit25, label %14

14:                                               ; preds = %11
  tail call void @free(ptr noundef nonnull %13) #24
  br label %Vec_IntFree.exit25

Vec_IntFree.exit25:                               ; preds = %11, %14
  tail call void @free(ptr noundef nonnull %10) #24
  br label %15

15:                                               ; preds = %Vec_IntFree.exit25, %8
  %16 = getelementptr inbounds nuw i8, ptr %0, i64 48
  %17 = load ptr, ptr %16, align 8, !tbaa !130
  %.not20 = icmp eq ptr %17, null
  br i1 %.not20, label %19, label %18

18:                                               ; preds = %15
  tail call void @Gia_ManStop(ptr noundef nonnull %17) #24
  br label %19

19:                                               ; preds = %18, %15
  %20 = getelementptr inbounds nuw i8, ptr %0, i64 40
  %21 = load ptr, ptr %20, align 8, !tbaa !161
  %.not21 = icmp eq ptr %21, null
  br i1 %.not21, label %23, label %22

22:                                               ; preds = %19
  tail call void @Abc_CexFree(ptr noundef nonnull %21) #24
  br label %23

23:                                               ; preds = %22, %19
  %24 = getelementptr inbounds nuw i8, ptr %0, i64 56
  %25 = load ptr, ptr %24, align 8, !tbaa !76
  %26 = getelementptr inbounds nuw i8, ptr %25, i64 8
  %27 = load ptr, ptr %26, align 8, !tbaa !37
  %.not.i26 = icmp eq ptr %27, null
  br i1 %.not.i26, label %Vec_BitFree.exit, label %28

28:                                               ; preds = %23
  tail call void @free(ptr noundef nonnull %27) #24
  br label %Vec_BitFree.exit

Vec_BitFree.exit:                                 ; preds = %23, %28
  tail call void @free(ptr noundef nonnull %25) #24
  %29 = getelementptr inbounds nuw i8, ptr %0, i64 64
  %30 = load ptr, ptr %29, align 8, !tbaa !132
  %.not22 = icmp eq ptr %30, null
  br i1 %.not22, label %32, label %31

31:                                               ; preds = %Vec_BitFree.exit
  tail call void @free(ptr noundef nonnull %30) #24
  br label %32

32:                                               ; preds = %Vec_BitFree.exit, %31
  tail call void @free(ptr noundef nonnull %0) #24
  ret void
}